target datalayout = "e-m:e-p270:32:32-p271:32:32-p272:64:64-i64:64-i128:128-f80:128-n8:16:32:64-S128"
target triple = "x86_64-pc-linux-gnu"

%"struct.cv::QRCodeEncoder::Params" = type { i32, i32, i32, i32 }
%"class.cv::QRCodeEncoderImpl" = type { %"class.cv::QRCodeEncoder", %"struct.cv::QRCodeEncoder::Params", i32, i32, i32, i32, i32, i32, %"class.std::vector.3", %"class.std::vector.3", %"class.std::vector.3", %"class.std::vector.3", %"class.cv::Mat", %"class.cv::Mat", i8, i8, i8, %"class.std::vector.8", ptr, ptr }
%"class.cv::QRCodeEncoder" = type { ptr }
%"class.std::vector.3" = type { %"struct.std::_Vector_base.4" }
%"struct.std::_Vector_base.4" = type { %"struct.std::_Vector_base<unsigned char, std::allocator<unsigned char>>::_Vector_impl" }
%"struct.std::_Vector_base<unsigned char, std::allocator<unsigned char>>::_Vector_impl" = type { %"struct.std::_Vector_base<unsigned char, std::allocator<unsigned char>>::_Vector_impl_data" }
%"struct.std::_Vector_base<unsigned char, std::allocator<unsigned char>>::_Vector_impl_data" = type { ptr, ptr, ptr }
%"class.cv::Mat" = type { i32, i32, i32, i32, ptr, ptr, ptr, ptr, ptr, ptr, %"struct.cv::MatSize", %"struct.cv::MatStep" }
%"struct.cv::MatSize" = type { ptr }
%"struct.cv::MatStep" = type { ptr, [2 x i64] }
%"class.std::vector.8" = type { %"struct.std::_Vector_base.9" }
%"struct.std::_Vector_base.9" = type { %"struct.std::_Vector_base<cv::Mat, std::allocator<cv::Mat>>::_Vector_impl" }
%"struct.std::_Vector_base<cv::Mat, std::allocator<cv::Mat>>::_Vector_impl" = type { %"struct.std::_Vector_base<cv::Mat, std::allocator<cv::Mat>>::_Vector_impl_data" }
%"struct.std::_Vector_base<cv::Mat, std::allocator<cv::Mat>>::_Vector_impl_data" = type { ptr, ptr, ptr }

; Function Attrs: mustprogress uwtable
define hidden void @_ZN2cv17QRCodeEncoderImpl21structureFinalMessageEv(ptr noundef nonnull align 8 dereferenceable(384) %0) #2 align 2 {
  %2 = alloca ptr, align 8
  store ptr %0, ptr %2, align 8, !tbaa !20
  %3 = load ptr, ptr %2, align 8
  call void @_ZN2cv17QRCodeEncoderImpl17writeReservedAreaEv(ptr noundef nonnull align 8 dereferenceable(384) %3)
  call void @_ZN2cv17QRCodeEncoderImpl9writeDataEv(ptr noundef nonnull align 8 dereferenceable(384) %3)
  call void @_ZN2cv17QRCodeEncoderImpl16findAutoMaskTypeEv(ptr noundef nonnull align 8 dereferenceable(384) %3)
  %4 = getelementptr inbounds nuw %"class.cv::QRCodeEncoderImpl", ptr %3, i32 0, i32 12
  %5 = getelementptr inbounds nuw %"class.cv::QRCodeEncoderImpl", ptr %3, i32 0, i32 7
  %6 = load i32, ptr %5, align 4, !tbaa !172
  %7 = getelementptr inbounds nuw %"class.cv::QRCodeEncoderImpl", ptr %3, i32 0, i32 13
  call void @_ZN2cvL8maskDataERKNS_3MatEiRS0_(ptr noundef nonnull align 8 dereferenceable(96) %4, i32 noundef %6, ptr noundef nonnull align 8 dereferenceable(96) %7)
  %8 = getelementptr inbounds nuw %"class.cv::QRCodeEncoderImpl", ptr %3, i32 0, i32 7
  %9 = load i32, ptr %8, align 4, !tbaa !172
  %10 = getelementptr inbounds nuw %"class.cv::QRCodeEncoderImpl", ptr %3, i32 0, i32 8
  call void @_ZN2cv17QRCodeEncoderImpl14formatGenerateEiRSt6vectorIhSaIhEE(ptr noundef nonnull align 8 dereferenceable(384) %3, i32 noundef %9, ptr noundef nonnull align 8 dereferenceable(24) %10)
  %11 = getelementptr inbounds nuw %"class.cv::QRCodeEncoderImpl", ptr %3, i32 0, i32 2
  %12 = load i32, ptr %11, align 8, !tbaa !88
  %13 = getelementptr inbounds nuw %"class.cv::QRCodeEncoderImpl", ptr %3, i32 0, i32 9
  call void @_ZN2cv17QRCodeEncoderImpl19versionInfoGenerateEiRSt6vectorIhSaIhEE(ptr noundef nonnull align 8 dereferenceable(384) %3, i32 noundef %12, ptr noundef nonnull align 8 dereferenceable(24) %13)
  %14 = getelementptr inbounds nuw %"class.cv::QRCodeEncoderImpl", ptr %3, i32 0, i32 8
  %15 = getelementptr inbounds nuw %"class.cv::QRCodeEncoderImpl", ptr %3, i32 0, i32 13
  call void @_ZN2cv17QRCodeEncoderImpl12fillReservedERKSt6vectorIhSaIhEERNS_3MatE(ptr noundef nonnull align 8 dereferenceable(384) %3, ptr noundef nonnull align 8 dereferenceable(24) %14, ptr noundef nonnull align 8 dereferenceable(96) %15)
  ret void
}