; Function Attrs: mustprogress uwtable
define hidden void @_ZN2cv17QRCodeEncoderImpl21structureFinalMessageEv(ptr noundef nonnull align 8 dereferenceable(384) %0) local_unnamed_addr #4 align 2 {
  tail call void @_ZN2cv17QRCodeEncoderImpl17writeReservedAreaEv(ptr noundef nonnull align 8 dereferenceable(384) %0)
  tail call void @_ZN2cv17QRCodeEncoderImpl9writeDataEv(ptr noundef nonnull align 8 dereferenceable(384) %0)
  tail call void @_ZN2cv17QRCodeEncoderImpl16findAutoMaskTypeEv(ptr noundef nonnull align 8 dereferenceable(384) %0)
  %2 = getelementptr inbounds nuw i8, ptr %0, i64 144
  %3 = getelementptr inbounds nuw i8, ptr %0, i64 44
  %4 = load i32, ptr %3, align 4, !tbaa !83
  %5 = getelementptr inbounds nuw i8, ptr %0, i64 240
  tail call fastcc void @_ZN2cvL8maskDataERKNS_3MatEiRS0_(ptr noundef nonnull align 8 dereferenceable(96) %2, i32 noundef %4, ptr noundef nonnull align 8 dereferenceable(96) %5)
  %6 = load i32, ptr %3, align 4, !tbaa !83
  %7 = getelementptr inbounds nuw i8, ptr %0, i64 48
  tail call void @_ZN2cv17QRCodeEncoderImpl14formatGenerateEiRSt6vectorIhSaIhEE(ptr noundef nonnull align 8 dereferenceable(384) %0, i32 noundef %6, ptr noundef nonnull align 8 dereferenceable(24) %7)
  %8 = getelementptr inbounds nuw i8, ptr %0, i64 24
  %9 = load i32, ptr %8, align 8, !tbaa !73
  %10 = getelementptr inbounds nuw i8, ptr %0, i64 72
  tail call void @_ZN2cv17QRCodeEncoderImpl19versionInfoGenerateEiRSt6vectorIhSaIhEE(ptr nonnull align 8 poison, i32 noundef %9, ptr noundef nonnull align 8 dereferenceable(24) %10)
  tail call void @_ZN2cv17QRCodeEncoderImpl12fillReservedERKSt6vectorIhSaIhEERNS_3MatE(ptr noundef nonnull align 8 dereferenceable(384) %0, ptr noundef nonnull align 8 dereferenceable(24) %7, ptr noundef nonnull align 8 dereferenceable(96) %5)
  ret void
}